; Function Attrs: nounwind uwtable
define internal fastcc range(i32 0, 2) i32 @r_mark_nUn(ptr noundef %0) unnamed_addr #0 {
  %2 = tail call fastcc i32 @r_check_vowel_harmony(ptr noundef %0)
  %.not.not.not = icmp eq i32 %2, 0
  br i1 %.not.not.not, label %18, label %3

3:                                                ; preds = %1
  %4 = getelementptr inbounds nuw i8, ptr %0, i64 8
  %5 = load i32, ptr %4, align 8
  %6 = add i32 %5, -1
  %7 = getelementptr inbounds nuw i8, ptr %0, i64 16
  %8 = load i32, ptr %7, align 8
  %.not = icmp sgt i32 %6, %8
  br i1 %.not, label %9, label %18

9:                                                ; preds = %3
  %10 = load ptr, ptr %0, align 8
  %11 = sext i32 %6 to i64
  %12 = getelementptr inbounds i8, ptr %10, i64 %11
  %13 = load i8, ptr %12, align 1
  %.not16 = icmp eq i8 %13, 110
  br i1 %.not16, label %14, label %18

14:                                               ; preds = %9
  %15 = tail call i32 @find_among_b(ptr noundef nonnull %0, ptr noundef nonnull @a_3, i32 noundef 4) #3
  %.not17 = icmp eq i32 %15, 0
  br i1 %.not17, label %18, label %16

16:                                               ; preds = %14
  %17 = tail call fastcc i32 @r_mark_suffix_with_optional_n_consonant(ptr noundef nonnull %0)
  br label %18

18:                                               ; preds = %16, %1, %14, %3, %9
  %.1 = phi i32 [ 0, %1 ], [ 0, %9 ], [ 0, %3 ], [ 0, %14 ], [ %17, %16 ]
  ret i32 %.1
}